target datalayout = "e-m:e-p270:32:32-p271:32:32-p272:64:64-i64:64-i128:128-f80:128-n8:16:32:64-S128"
target triple = "x86_64-unknown-linux-gnu"

%struct.TypeInfo = type { ptr, ptr, i64, i64, ptr, ptr, ptr, i8, i64, ptr, ptr, ptr, ptr }
%struct.FlashPartInfo = type { ptr, [6 x i8], i8, i32, i32, i32, i16, i8, ptr }

@m25p80_info = internal constant %struct.TypeInfo { ptr @.str, ptr @.str.1, i64 288, i64 0, ptr null, ptr null, ptr null, i8 1, i64 224, ptr null, ptr null, ptr null, ptr null }, align 8
@.str = private unnamed_addr constant [15 x i8] c"m25p80-generic\00", align 1

; Function Attrs: nounwind sspstrong uwtable
define internal void @m25p80_register_types() #0 {
entry:
  %i = alloca i32, align 4
  %ti = alloca %struct.TypeInfo, align 8
  %call = call ptr @type_register_static(ptr noundef @m25p80_info)
  store i32 0, ptr %i, align 4
  br label %for.cond

for.cond:                                         ; preds = %for.inc, %entry
  %0 = load i32, ptr %i, align 4
  %conv = sext i32 %0 to i64
  %cmp = icmp ult i64 %conv, 134
  br i1 %cmp, label %for.body, label %for.end

for.body:                                         ; preds = %for.cond
  %name = getelementptr inbounds %struct.TypeInfo, ptr %ti, i32 0, i32 0
  %1 = load i32, ptr %i, align 4
  %idxprom = sext i32 %1 to i64
  %arrayidx = getelementptr [134 x %struct.FlashPartInfo], ptr @known_devices, i64 0, i64 %idxprom
  %part_name = getelementptr inbounds %struct.FlashPartInfo, ptr %arrayidx, i32 0, i32 0
  %2 = load ptr, ptr %part_name, align 8
  store ptr %2, ptr %name, align 8
  %parent = getelementptr inbounds %struct.TypeInfo, ptr %ti, i32 0, i32 1
  store ptr @.str, ptr %parent, align 8
  %instance_size = getelementptr inbounds %struct.TypeInfo, ptr %ti, i32 0, i32 2
  store i64 0, ptr %instance_size, align 8
  %instance_align = getelementptr inbounds %struct.TypeInfo, ptr %ti, i32 0, i32 3
  store i64 0, ptr %instance_align, align 8
  %instance_init = getelementptr inbounds %struct.TypeInfo, ptr %ti, i32 0, i32 4
  store ptr null, ptr %instance_init, align 8
  %instance_post_init = getelementptr inbounds %struct.TypeInfo, ptr %ti, i32 0, i32 5
  store ptr null, ptr %instance_post_init, align 8
  %instance_finalize = getelementptr inbounds %struct.TypeInfo, ptr %ti, i32 0, i32 6
  store ptr null, ptr %instance_finalize, align 8
  %abstract = getelementptr inbounds %struct.TypeInfo, ptr %ti, i32 0, i32 7
  store i8 0, ptr %abstract, align 8
  %class_size = getelementptr inbounds %struct.TypeInfo, ptr %ti, i32 0, i32 8
  store i64 0, ptr %class_size, align 8
  %class_init = getelementptr inbounds %struct.TypeInfo, ptr %ti, i32 0, i32 9
  store ptr @m25p80_class_init, ptr %class_init, align 8
  %class_base_init = getelementptr inbounds %struct.TypeInfo, ptr %ti, i32 0, i32 10
  store ptr null, ptr %class_base_init, align 8
  %class_data = getelementptr inbounds %struct.TypeInfo, ptr %ti, i32 0, i32 11
  %3 = load i32, ptr %i, align 4
  %idxprom2 = sext i32 %3 to i64
  %arrayidx3 = getelementptr [134 x %struct.FlashPartInfo], ptr @known_devices, i64 0, i64 %idxprom2
  store ptr %arrayidx3, ptr %class_data, align 8
  %interfaces = getelementptr inbounds %struct.TypeInfo, ptr %ti, i32 0, i32 12
  store ptr null, ptr %interfaces, align 8
  %call4 = call ptr @type_register(ptr noundef %ti)
  br label %for.inc

for.inc:                                          ; preds = %for.body
  %4 = load i32, ptr %i, align 4
  %inc = add i32 %4, 1
  store i32 %inc, ptr %i, align 4
  br label %for.cond, !llvm.loop !5

for.end:                                          ; preds = %for.cond
  ret void
}