; Function Attrs: nounwind sspstrong uwtable
define internal void @m25p80_register_types() #0 {
entry:
  %ti = alloca %struct.TypeInfo, align 8
  %call = tail call ptr @type_register_static(ptr noundef nonnull @m25p80_info) #13
  %parent = getelementptr inbounds nuw i8, ptr %ti, i64 8
  %instance_size = getelementptr inbounds nuw i8, ptr %ti, i64 16
  %class_size = getelementptr inbounds nuw i8, ptr %ti, i64 64
  %class_init = getelementptr inbounds nuw i8, ptr %ti, i64 72
  %class_base_init = getelementptr inbounds nuw i8, ptr %ti, i64 80
  %class_data = getelementptr inbounds nuw i8, ptr %ti, i64 88
  %interfaces = getelementptr inbounds nuw i8, ptr %ti, i64 96
  br label %for.body

for.body:                                         ; preds = %entry, %for.body
  %indvars.iv = phi i64 [ 0, %entry ], [ %indvars.iv.next, %for.body ]
  %arrayidx = getelementptr [134 x %struct.FlashPartInfo], ptr @known_devices, i64 0, i64 %indvars.iv
  %0 = load ptr, ptr %arrayidx, align 8
  store ptr %0, ptr %ti, align 8
  store ptr @.str, ptr %parent, align 8
  store i64 0, ptr %class_size, align 8
  call void @llvm.memset.p0.i64(ptr noundef nonnull align 8 dereferenceable(41) %instance_size, i8 0, i64 41, i1 false)
  store ptr @m25p80_class_init, ptr %class_init, align 8
  store ptr null, ptr %class_base_init, align 8
  store ptr %arrayidx, ptr %class_data, align 8
  store ptr null, ptr %interfaces, align 8
  %call4 = call ptr @type_register(ptr noundef nonnull %ti) #13
  %indvars.iv.next = add nuw nsw i64 %indvars.iv, 1
  %exitcond.not = icmp eq i64 %indvars.iv.next, 134
  br i1 %exitcond.not, label %for.end, label %for.body, !llvm.loop !5

for.end:                                          ; preds = %for.body
  ret void
}